; Function Attrs: mustprogress uwtable
define hidden void @_ZN7datalog14check_relation5resetEv(ptr noundef nonnull align 8 captures(none) dereferenceable(64) %0) unnamed_addr #3 align 2 {
  %2 = getelementptr inbounds nuw i8, ptr %0, i64 40
  %3 = load ptr, ptr %2, align 8, !tbaa !29
  %4 = load ptr, ptr %3, align 8, !tbaa !3
  %5 = getelementptr inbounds nuw i8, ptr %4, i64 64
  %6 = load ptr, ptr %5, align 8
  tail call void %6(ptr noundef nonnull align 8 dereferenceable(28) %3)
  %7 = getelementptr inbounds nuw i8, ptr %0, i64 32
  %8 = load ptr, ptr %7, align 8, !tbaa !63
  %9 = getelementptr inbounds nuw i8, ptr %8, i64 864
  %10 = load ptr, ptr %9, align 8, !tbaa !129
  %11 = getelementptr inbounds nuw i8, ptr %0, i64 48
  %.not.i = icmp eq ptr %10, null
  br i1 %.not.i, label %15, label %_ZN11ast_manager7inc_refEP3ast.exit.i

_ZN11ast_manager7inc_refEP3ast.exit.i:            ; preds = %1
  %12 = getelementptr inbounds nuw i8, ptr %10, i64 8
  %13 = load i32, ptr %12, align 4, !tbaa !37
  %14 = add i32 %13, 1
  store i32 %14, ptr %12, align 4, !tbaa !37
  br label %15

15:                                               ; preds = %_ZN11ast_manager7inc_refEP3ast.exit.i, %1
  %16 = load ptr, ptr %11, align 8, !tbaa !35
  %.not.i4.i = icmp eq ptr %16, null
  br i1 %.not.i4.i, label %_ZN7obj_refI4expr11ast_managerEaSEPS0_.exit, label %17

17:                                               ; preds = %15
  %18 = getelementptr inbounds nuw i8, ptr %0, i64 56
  %19 = load ptr, ptr %18, align 8, !tbaa !36
  %20 = getelementptr inbounds nuw i8, ptr %16, i64 8
  %21 = load i32, ptr %20, align 4, !tbaa !37
  %22 = add i32 %21, -1
  store i32 %22, ptr %20, align 4, !tbaa !37
  %23 = icmp eq i32 %22, 0
  br i1 %23, label %24, label %_ZN7obj_refI4expr11ast_managerEaSEPS0_.exit

24:                                               ; preds = %17
  tail call void @_ZN11ast_manager11delete_nodeEP3ast(ptr noundef nonnull align 8 dereferenceable(976) %19, ptr noundef nonnull %16)
  br label %_ZN7obj_refI4expr11ast_managerEaSEPS0_.exit

_ZN7obj_refI4expr11ast_managerEaSEPS0_.exit:      ; preds = %15, %17, %24
  store ptr %10, ptr %11, align 8, !tbaa !35
  ret void
}